target datalayout = "e-m:e-p270:32:32-p271:32:32-p272:64:64-i64:64-i128:128-f80:128-n8:16:32:64-S128"
target triple = "x86_64-pc-linux-gnu"

%struct.crypto_ex_data_st = type { ptr }
%struct.ssl_session_st = type { i32, i32, i32, i32, [48 x i8], i32, [32 x i8], i32, [32 x i8], ptr, ptr, ptr, i64, i64, i64, ptr, %struct.crypto_ex_data_st, ptr, ptr, ptr, ptr, i64, i64, ptr, i64, ptr, [32 x i8], [64 x i8], i32, i32, i8 }

@.str.7 = private unnamed_addr constant [8 x i8] c"TLSv1.2\00", align 1
@.str.8 = private unnamed_addr constant [8 x i8] c"TLSv1.1\00", align 1
@.str.9 = private unnamed_addr constant [6 x i8] c"TLSv1\00", align 1
@.str.10 = private unnamed_addr constant [6 x i8] c"SSLv3\00", align 1
@.str.11 = private unnamed_addr constant [7 x i8] c"DTLSv1\00", align 1
@.str.12 = private unnamed_addr constant [9 x i8] c"DTLSv1.2\00", align 1
@.str.13 = private unnamed_addr constant [8 x i8] c"unknown\00", align 1

; Function Attrs: nounwind uwtable
define internal ptr @ssl_get_version(i32 noundef %0) #0 {
  %2 = alloca ptr, align 8
  %3 = alloca i32, align 4
  store i32 %0, ptr %3, align 4, !tbaa !61
  %4 = load i32, ptr %3, align 4, !tbaa !61
  switch i32 %4, label %11 [
    i32 771, label %5
    i32 770, label %6
    i32 769, label %7
    i32 768, label %8
    i32 65279, label %9
    i32 65277, label %10
  ]

5:                                                ; preds = %1
  store ptr @.str.7, ptr %2, align 8
  br label %12

6:                                                ; preds = %1
  store ptr @.str.8, ptr %2, align 8
  br label %12

7:                                                ; preds = %1
  store ptr @.str.9, ptr %2, align 8
  br label %12

8:                                                ; preds = %1
  store ptr @.str.10, ptr %2, align 8
  br label %12

9:                                                ; preds = %1
  store ptr @.str.11, ptr %2, align 8
  br label %12

10:                                               ; preds = %1
  store ptr @.str.12, ptr %2, align 8
  br label %12

11:                                               ; preds = %1
  store ptr @.str.13, ptr %2, align 8
  br label %12

12:                                               ; preds = %11, %10, %9, %8, %7, %6, %5
  %13 = load ptr, ptr %2, align 8
  ret ptr %13
}

; Function Attrs: nounwind uwtable
define hidden ptr @SSL_SESSION_get_version(ptr noundef %0) #0 {
  %2 = alloca ptr, align 8
  store ptr %0, ptr %2, align 8, !tbaa !54
  %3 = load ptr, ptr %2, align 8, !tbaa !54
  %4 = getelementptr inbounds nuw %struct.ssl_session_st, ptr %3, i32 0, i32 1
  %5 = load i32, ptr %4, align 4, !tbaa !62
  %6 = call ptr @ssl_get_version(i32 noundef %5)
  ret ptr %6
}