; Function Attrs: mustprogress nofree norecurse nosync nounwind willreturn memory(argmem: read) uwtable
define hidden noundef nonnull ptr @SSL_SESSION_get_version(ptr noundef readonly captures(none) %0) local_unnamed_addr #9 {
  %2 = getelementptr inbounds nuw i8, ptr %0, i64 4
  %3 = load i32, ptr %2, align 4, !tbaa !56
  switch i32 %3, label %9 [
    i32 771, label %ssl_get_version.exit
    i32 770, label %4
    i32 769, label %5
    i32 768, label %6
    i32 65279, label %7
    i32 65277, label %8
  ]

4:                                                ; preds = %1
  br label %ssl_get_version.exit

5:                                                ; preds = %1
  br label %ssl_get_version.exit

6:                                                ; preds = %1
  br label %ssl_get_version.exit

7:                                                ; preds = %1
  br label %ssl_get_version.exit

8:                                                ; preds = %1
  br label %ssl_get_version.exit

9:                                                ; preds = %1
  br label %ssl_get_version.exit

ssl_get_version.exit:                             ; preds = %1, %4, %5, %6, %7, %8, %9
  %.0.i = phi ptr [ @.str.13, %9 ], [ @.str.12, %8 ], [ @.str.11, %7 ], [ @.str.10, %6 ], [ @.str.9, %5 ], [ @.str.8, %4 ], [ @.str.7, %1 ]
  ret ptr %.0.i
}